target datalayout = "e-m:e-p270:32:32-p271:32:32-p272:64:64-i64:64-i128:128-f80:128-n8:16:32:64-S128"
target triple = "x86_64-unknown-linux-gnu"

%struct.iovec = type { ptr, i64 }
%struct.QEMUIOVector = type { ptr, i32, %union.anon }
%union.anon = type { %struct.anon }
%struct.anon = type { i32, %struct.iovec }

@.str.1 = private unnamed_addr constant [19 x i8] c"../qemu/util/iov.c\00", align 1
@.str.13 = private unnamed_addr constant [19 x i8] c"a->niov == b->niov\00", align 1
@__PRETTY_FUNCTION__.qemu_iovec_compare = private unnamed_addr constant [59 x i8] c"ssize_t qemu_iovec_compare(QEMUIOVector *, QEMUIOVector *)\00", align 1
@.str.14 = private unnamed_addr constant [39 x i8] c"a->iov[i].iov_len == b->iov[i].iov_len\00", align 1

; Function Attrs: nounwind sspstrong uwtable
define dso_local i64 @qemu_iovec_compare(ptr noundef %a, ptr noundef %b) #0 {
entry:
  %retval = alloca i64, align 8
  %a.addr = alloca ptr, align 8
  %b.addr = alloca ptr, align 8
  %i = alloca i32, align 4
  %offset = alloca i64, align 8
  %len = alloca i64, align 8
  %p = alloca ptr, align 8
  %q = alloca ptr, align 8
  store ptr %a, ptr %a.addr, align 8
  store ptr %b, ptr %b.addr, align 8
  store i64 0, ptr %offset, align 8
  %0 = load ptr, ptr %a.addr, align 8
  %niov = getelementptr inbounds %struct.QEMUIOVector, ptr %0, i32 0, i32 1
  %1 = load i32, ptr %niov, align 8
  %2 = load ptr, ptr %b.addr, align 8
  %niov1 = getelementptr inbounds %struct.QEMUIOVector, ptr %2, i32 0, i32 1
  %3 = load i32, ptr %niov1, align 8
  %cmp = icmp eq i32 %1, %3
  br i1 %cmp, label %if.then, label %if.else

if.then:                                          ; preds = %entry
  br label %if.end

if.else:                                          ; preds = %entry
  call void @__assert_fail(ptr noundef @.str.13, ptr noundef @.str.1, i32 noundef 517, ptr noundef @__PRETTY_FUNCTION__.qemu_iovec_compare) #9
  unreachable

if.end:                                           ; preds = %if.then
  store i32 0, ptr %i, align 4
  br label %for.cond

for.cond:                                         ; preds = %for.inc, %if.end
  %4 = load i32, ptr %i, align 4
  %5 = load ptr, ptr %a.addr, align 8
  %niov2 = getelementptr inbounds %struct.QEMUIOVector, ptr %5, i32 0, i32 1
  %6 = load i32, ptr %niov2, align 8
  %cmp3 = icmp slt i32 %4, %6
  br i1 %cmp3, label %for.body, label %for.end

for.body:                                         ; preds = %for.cond
  store i64 0, ptr %len, align 8
  %7 = load ptr, ptr %a.addr, align 8
  %iov = getelementptr inbounds %struct.QEMUIOVector, ptr %7, i32 0, i32 0
  %8 = load ptr, ptr %iov, align 8
  %9 = load i32, ptr %i, align 4
  %idxprom = sext i32 %9 to i64
  %arrayidx = getelementptr %struct.iovec, ptr %8, i64 %idxprom
  %iov_base = getelementptr inbounds %struct.iovec, ptr %arrayidx, i32 0, i32 0
  %10 = load ptr, ptr %iov_base, align 8
  store ptr %10, ptr %p, align 8
  %11 = load ptr, ptr %b.addr, align 8
  %iov4 = getelementptr inbounds %struct.QEMUIOVector, ptr %11, i32 0, i32 0
  %12 = load ptr, ptr %iov4, align 8
  %13 = load i32, ptr %i, align 4
  %idxprom5 = sext i32 %13 to i64
  %arrayidx6 = getelementptr %struct.iovec, ptr %12, i64 %idxprom5
  %iov_base7 = getelementptr inbounds %struct.iovec, ptr %arrayidx6, i32 0, i32 0
  %14 = load ptr, ptr %iov_base7, align 8
  store ptr %14, ptr %q, align 8
  %15 = load ptr, ptr %a.addr, align 8
  %iov8 = getelementptr inbounds %struct.QEMUIOVector, ptr %15, i32 0, i32 0
  %16 = load ptr, ptr %iov8, align 8
  %17 = load i32, ptr %i, align 4
  %idxprom9 = sext i32 %17 to i64
  %arrayidx10 = getelementptr %struct.iovec, ptr %16, i64 %idxprom9
  %iov_len = getelementptr inbounds %struct.iovec, ptr %arrayidx10, i32 0, i32 1
  %18 = load i64, ptr %iov_len, align 8
  %19 = load ptr, ptr %b.addr, align 8
  %iov11 = getelementptr inbounds %struct.QEMUIOVector, ptr %19, i32 0, i32 0
  %20 = load ptr, ptr %iov11, align 8
  %21 = load i32, ptr %i, align 4
  %idxprom12 = sext i32 %21 to i64
  %arrayidx13 = getelementptr %struct.iovec, ptr %20, i64 %idxprom12
  %iov_len14 = getelementptr inbounds %struct.iovec, ptr %arrayidx13, i32 0, i32 1
  %22 = load i64, ptr %iov_len14, align 8
  %cmp15 = icmp eq i64 %18, %22
  br i1 %cmp15, label %if.then16, label %if.else17

if.then16:                                        ; preds = %for.body
  br label %if.end18

if.else17:                                        ; preds = %for.body
  call void @__assert_fail(ptr noundef @.str.14, ptr noundef @.str.1, i32 noundef 523, ptr noundef @__PRETTY_FUNCTION__.qemu_iovec_compare) #9
  unreachable

if.end18:                                         ; preds = %if.then16
  br label %while.cond

while.cond:                                       ; preds = %while.body, %if.end18
  %23 = load i64, ptr %len, align 8
  %24 = load ptr, ptr %a.addr, align 8
  %iov19 = getelementptr inbounds %struct.QEMUIOVector, ptr %24, i32 0, i32 0
  %25 = load ptr, ptr %iov19, align 8
  %26 = load i32, ptr %i, align 4
  %idxprom20 = sext i32 %26 to i64
  %arrayidx21 = getelementptr %struct.iovec, ptr %25, i64 %idxprom20
  %iov_len22 = getelementptr inbounds %struct.iovec, ptr %arrayidx21, i32 0, i32 1
  %27 = load i64, ptr %iov_len22, align 8
  %cmp23 = icmp ult i64 %23, %27
  br i1 %cmp23, label %land.rhs, label %land.end

land.rhs:                                         ; preds = %while.cond
  %28 = load ptr, ptr %p, align 8
  %incdec.ptr = getelementptr i8, ptr %28, i32 1
  store ptr %incdec.ptr, ptr %p, align 8
  %29 = load i8, ptr %28, align 1
  %conv = zext i8 %29 to i32
  %30 = load ptr, ptr %q, align 8
  %incdec.ptr24 = getelementptr i8, ptr %30, i32 1
  store ptr %incdec.ptr24, ptr %q, align 8
  %31 = load i8, ptr %30, align 1
  %conv25 = zext i8 %31 to i32
  %cmp26 = icmp eq i32 %conv, %conv25
  br label %land.end

land.end:                                         ; preds = %land.rhs, %while.cond
  %32 = phi i1 [ false, %while.cond ], [ %cmp26, %land.rhs ]
  br i1 %32, label %while.body, label %while.end

while.body:                                       ; preds = %land.end
  %33 = load i64, ptr %len, align 8
  %inc = add i64 %33, 1
  store i64 %inc, ptr %len, align 8
  br label %while.cond, !llvm.loop !20

while.end:                                        ; preds = %land.end
  %34 = load i64, ptr %len, align 8
  %35 = load i64, ptr %offset, align 8
  %add = add i64 %35, %34
  store i64 %add, ptr %offset, align 8
  %36 = load i64, ptr %len, align 8
  %37 = load ptr, ptr %a.addr, align 8
  %iov28 = getelementptr inbounds %struct.QEMUIOVector, ptr %37, i32 0, i32 0
  %38 = load ptr, ptr %iov28, align 8
  %39 = load i32, ptr %i, align 4
  %idxprom29 = sext i32 %39 to i64
  %arrayidx30 = getelementptr %struct.iovec, ptr %38, i64 %idxprom29
  %iov_len31 = getelementptr inbounds %struct.iovec, ptr %arrayidx30, i32 0, i32 1
  %40 = load i64, ptr %iov_len31, align 8
  %cmp32 = icmp ne i64 %36, %40
  br i1 %cmp32, label %if.then34, label %if.end35

if.then34:                                        ; preds = %while.end
  %41 = load i64, ptr %offset, align 8
  store i64 %41, ptr %retval, align 8
  br label %return

if.end35:                                         ; preds = %while.end
  br label %for.inc

for.inc:                                          ; preds = %if.end35
  %42 = load i32, ptr %i, align 4
  %inc36 = add i32 %42, 1
  store i32 %inc36, ptr %i, align 4
  br label %for.cond, !llvm.loop !21

for.end:                                          ; preds = %for.cond
  store i64 -1, ptr %retval, align 8
  br label %return

return:                                           ; preds = %for.end, %if.then34
  %43 = load i64, ptr %retval, align 8
  ret i64 %43
}