; Function Attrs: nounwind sspstrong uwtable
define dso_local i64 @qemu_iovec_compare(ptr noundef readonly captures(none) %a, ptr noundef readonly captures(none) %b) local_unnamed_addr #0 {
entry:
  %niov = getelementptr inbounds nuw i8, ptr %a, i64 8
  %0 = load i32, ptr %niov, align 8
  %niov1 = getelementptr inbounds nuw i8, ptr %b, i64 8
  %1 = load i32, ptr %niov1, align 8
  %cmp = icmp eq i32 %0, %1
  br i1 %cmp, label %for.cond.preheader, label %if.else

for.cond.preheader:                               ; preds = %entry
  %cmp326 = icmp sgt i32 %0, 0
  br i1 %cmp326, label %for.body.lr.ph, label %return

for.body.lr.ph:                                   ; preds = %for.cond.preheader
  %2 = load ptr, ptr %a, align 8
  %3 = load ptr, ptr %b, align 8
  br label %for.body

if.else:                                          ; preds = %entry
  tail call void @__assert_fail(ptr noundef nonnull @.str.13, ptr noundef nonnull @.str.1, i32 noundef 517, ptr noundef nonnull @__PRETTY_FUNCTION__.qemu_iovec_compare) #17
  unreachable

for.cond:                                         ; preds = %while.end.thread, %while.end
  %add35 = phi i64 [ %add33, %while.end.thread ], [ %add, %while.end ]
  %inc36 = add nuw nsw i32 %i.027, 1
  %exitcond31.not = icmp eq i32 %inc36, %0
  br i1 %exitcond31.not, label %return, label %for.body, !llvm.loop !20

for.body:                                         ; preds = %for.body.lr.ph, %for.cond
  %offset.028 = phi i64 [ 0, %for.body.lr.ph ], [ %add35, %for.cond ]
  %i.027 = phi i32 [ 0, %for.body.lr.ph ], [ %inc36, %for.cond ]
  %idxprom = zext nneg i32 %i.027 to i64
  %arrayidx = getelementptr %struct.iovec, ptr %2, i64 %idxprom
  %arrayidx6 = getelementptr %struct.iovec, ptr %3, i64 %idxprom
  %iov_len = getelementptr inbounds nuw i8, ptr %arrayidx, i64 8
  %4 = load i64, ptr %iov_len, align 8
  %iov_len14 = getelementptr inbounds nuw i8, ptr %arrayidx6, i64 8
  %5 = load i64, ptr %iov_len14, align 8
  %cmp15 = icmp eq i64 %4, %5
  br i1 %cmp15, label %while.cond.preheader, label %if.else17

while.cond.preheader:                             ; preds = %for.body
  %cmp2319.not = icmp eq i64 %4, 0
  br i1 %cmp2319.not, label %while.end, label %land.rhs.preheader

land.rhs.preheader:                               ; preds = %while.cond.preheader
  %6 = load ptr, ptr %arrayidx, align 8
  %7 = load ptr, ptr %arrayidx6, align 8
  br label %land.rhs

if.else17:                                        ; preds = %for.body
  tail call void @__assert_fail(ptr noundef nonnull @.str.14, ptr noundef nonnull @.str.1, i32 noundef 523, ptr noundef nonnull @__PRETTY_FUNCTION__.qemu_iovec_compare) #17
  unreachable

land.rhs:                                         ; preds = %land.rhs.preheader, %while.body
  %q.022 = phi ptr [ %incdec.ptr24, %while.body ], [ %7, %land.rhs.preheader ]
  %p.021 = phi ptr [ %incdec.ptr, %while.body ], [ %6, %land.rhs.preheader ]
  %len.020 = phi i64 [ %inc, %while.body ], [ 0, %land.rhs.preheader ]
  %8 = load i8, ptr %p.021, align 1
  %9 = load i8, ptr %q.022, align 1
  %cmp26 = icmp eq i8 %8, %9
  br i1 %cmp26, label %while.body, label %while.end

while.body:                                       ; preds = %land.rhs
  %incdec.ptr24 = getelementptr i8, ptr %q.022, i64 1
  %incdec.ptr = getelementptr i8, ptr %p.021, i64 1
  %inc = add nuw i64 %len.020, 1
  %exitcond.not = icmp eq i64 %inc, %4
  br i1 %exitcond.not, label %while.end.thread, label %land.rhs, !llvm.loop !21

while.end.thread:                                 ; preds = %while.body
  %add33 = add i64 %4, %offset.028
  br label %for.cond

while.end:                                        ; preds = %land.rhs, %while.cond.preheader
  %len.0.lcssa = phi i64 [ 0, %while.cond.preheader ], [ %len.020, %land.rhs ]
  %add = add i64 %len.0.lcssa, %offset.028
  %cmp32.not = icmp eq i64 %len.0.lcssa, %4
  br i1 %cmp32.not, label %for.cond, label %return

return:                                           ; preds = %while.end, %for.cond, %for.cond.preheader
  %retval.0 = phi i64 [ -1, %for.cond.preheader ], [ -1, %for.cond ], [ %add, %while.end ]
  ret i64 %retval.0
}